target datalayout = "e-m:e-p270:32:32-p271:32:32-p272:64:64-i64:64-i128:128-f80:128-n8:16:32:64-S128"
target triple = "x86_64-pc-linux-gnu"

@stats_period = global i64 500000, align 8
@.str.611 = private unnamed_addr constant [35 x i8] c"stats_period %s must be positive.\0A\00", align 1
@.str.612 = private unnamed_addr constant [46 x i8] c"ffmpeg stats and -progress period set to %s.\0A\00", align 1

; Function Attrs: nounwind uwtable
define internal i32 @opt_stats_period(ptr noundef %0, ptr noundef %1, ptr noundef %2) #0 {
  %4 = alloca i32, align 4
  %5 = alloca ptr, align 8
  %6 = alloca ptr, align 8
  %7 = alloca ptr, align 8
  %8 = alloca i64, align 8
  %9 = alloca i32, align 4
  %10 = alloca i32, align 4
  store ptr %0, ptr %5, align 8, !tbaa !26
  store ptr %1, ptr %6, align 8, !tbaa !23
  store ptr %2, ptr %7, align 8, !tbaa !23
  call void @llvm.lifetime.start.p0(i64 8, ptr %8) #12
  call void @llvm.lifetime.start.p0(i64 4, ptr %9) #12
  %11 = load ptr, ptr %7, align 8, !tbaa !23
  %12 = call i32 @av_parse_time(ptr noundef %8, ptr noundef %11, i32 noundef 1)
  store i32 %12, ptr %9, align 4, !tbaa !16
  %13 = load i32, ptr %9, align 4, !tbaa !16
  %14 = icmp slt i32 %13, 0
  br i1 %14, label %15, label %17

15:                                               ; preds = %3
  %16 = load i32, ptr %9, align 4, !tbaa !16
  store i32 %16, ptr %4, align 4
  store i32 1, ptr %10, align 4
  br label %25

17:                                               ; preds = %3
  %18 = load i64, ptr %8, align 8, !tbaa !56
  %19 = icmp sle i64 %18, 0
  br i1 %19, label %20, label %22

20:                                               ; preds = %17
  %21 = load ptr, ptr %7, align 8, !tbaa !23
  call void (ptr, i32, ptr, ...) @av_log(ptr noundef null, i32 noundef 16, ptr noundef @.str.611, ptr noundef %21)
  store i32 -22, ptr %4, align 4
  store i32 1, ptr %10, align 4
  br label %25

22:                                               ; preds = %17
  %23 = load i64, ptr %8, align 8, !tbaa !56
  store i64 %23, ptr @stats_period, align 8, !tbaa !56
  %24 = load ptr, ptr %7, align 8, !tbaa !23
  call void (ptr, i32, ptr, ...) @av_log(ptr noundef null, i32 noundef 32, ptr noundef @.str.612, ptr noundef %24)
  store i32 0, ptr %4, align 4
  store i32 1, ptr %10, align 4
  br label %25

25:                                               ; preds = %22, %20, %15
  call void @llvm.lifetime.end.p0(i64 4, ptr %9) #12
  call void @llvm.lifetime.end.p0(i64 8, ptr %8) #12
  %26 = load i32, ptr %4, align 4
  ret i32 %26
}