; Function Attrs: nounwind uwtable
define internal range(i32 -2147483648, 1) i32 @opt_stats_period(ptr readnone captures(none) %0, ptr readnone captures(none) %1, ptr noundef %2) #0 {
  %4 = alloca i64, align 8
  call void @llvm.lifetime.start.p0(i64 8, ptr nonnull %4) #15
  %5 = call i32 @av_parse_time(ptr noundef nonnull %4, ptr noundef %2, i32 noundef 1) #15
  %6 = icmp slt i32 %5, 0
  br i1 %6, label %12, label %7

7:                                                ; preds = %3
  %8 = load i64, ptr %4, align 8, !tbaa !39
  %9 = icmp slt i64 %8, 1
  br i1 %9, label %10, label %11

10:                                               ; preds = %7
  call void (ptr, i32, ptr, ...) @av_log(ptr noundef null, i32 noundef 16, ptr noundef nonnull @.str.611, ptr noundef %2) #15
  br label %12

11:                                               ; preds = %7
  store i64 %8, ptr @stats_period, align 8, !tbaa !39
  call void (ptr, i32, ptr, ...) @av_log(ptr noundef null, i32 noundef 32, ptr noundef nonnull @.str.612, ptr noundef %2) #15
  br label %12

12:                                               ; preds = %3, %11, %10
  %.0 = phi i32 [ -22, %10 ], [ 0, %11 ], [ %5, %3 ]
  call void @llvm.lifetime.end.p0(i64 8, ptr nonnull %4) #15
  ret i32 %.0
}